target datalayout = "e-m:e-p270:32:32-p271:32:32-p272:64:64-i64:64-i128:128-f80:128-n8:16:32:64-S128"
target triple = "x86_64-pc-linux-gnu"

%struct.AVFilterContext = type { ptr, ptr, ptr, ptr, ptr, i32, ptr, ptr, i32, ptr, ptr, i32, i32, ptr, ptr, ptr, ptr, i32, ptr, i32, i32 }
%struct.ADecorrelateContext = type { ptr, i32, i64, i32, ptr, %struct.AVLFG, ptr }
%struct.AVLFG = type { [64 x i32], i32 }
%struct.ThreadData = type { ptr, ptr }
%struct.AVChannelLayout = type { i32, i32, %union.anon.1, ptr }
%union.anon.1 = type { i64 }
%struct.AVRational = type { i32, i32 }
%struct.AVFrame = type { [8 x ptr], [8 x i32], ptr, i32, i32, i32, i32, i32, %struct.AVRational, i64, i64, %struct.AVRational, i32, ptr, i32, i32, [8 x ptr], ptr, i32, ptr, i32, i32, i32, i32, i32, i32, i32, i64, ptr, i32, ptr, ptr, i64, i64, i64, i64, ptr, %struct.AVChannelLayout, i64 }

; Function Attrs: nounwind uwtable
define internal i32 @filter_channels(ptr noundef %0, ptr noundef %1, i32 noundef %2, i32 noundef %3) #1 {
  %5 = alloca ptr, align 8
  %6 = alloca ptr, align 8
  %7 = alloca i32, align 4
  %8 = alloca i32, align 4
  %9 = alloca ptr, align 8
  %10 = alloca ptr, align 8
  %11 = alloca ptr, align 8
  %12 = alloca ptr, align 8
  %13 = alloca i32, align 4
  %14 = alloca i32, align 4
  %15 = alloca i32, align 4
  store ptr %0, ptr %5, align 8, !tbaa !4
  store ptr %1, ptr %6, align 8, !tbaa !62
  store i32 %2, ptr %7, align 4, !tbaa !29
  store i32 %3, ptr %8, align 4, !tbaa !29
  call void @llvm.lifetime.start.p0(i64 8, ptr %9) #8
  %16 = load ptr, ptr %5, align 8, !tbaa !4
  %17 = getelementptr inbounds nuw %struct.AVFilterContext, ptr %16, i32 0, i32 9
  %18 = load ptr, ptr %17, align 8, !tbaa !9
  store ptr %18, ptr %9, align 8, !tbaa !22
  call void @llvm.lifetime.start.p0(i64 8, ptr %10) #8
  %19 = load ptr, ptr %6, align 8, !tbaa !62
  store ptr %19, ptr %10, align 8, !tbaa !63
  call void @llvm.lifetime.start.p0(i64 8, ptr %11) #8
  %20 = load ptr, ptr %10, align 8, !tbaa !63
  %21 = getelementptr inbounds nuw %struct.ThreadData, ptr %20, i32 0, i32 1
  %22 = load ptr, ptr %21, align 8, !tbaa !55
  store ptr %22, ptr %11, align 8, !tbaa !37
  call void @llvm.lifetime.start.p0(i64 8, ptr %12) #8
  %23 = load ptr, ptr %10, align 8, !tbaa !63
  %24 = getelementptr inbounds nuw %struct.ThreadData, ptr %23, i32 0, i32 0
  %25 = load ptr, ptr %24, align 8, !tbaa !53
  store ptr %25, ptr %12, align 8, !tbaa !37
  call void @llvm.lifetime.start.p0(i64 4, ptr %13) #8
  %26 = load ptr, ptr %12, align 8, !tbaa !37
  %27 = getelementptr inbounds nuw %struct.AVFrame, ptr %26, i32 0, i32 37
  %28 = getelementptr inbounds nuw %struct.AVChannelLayout, ptr %27, i32 0, i32 1
  %29 = load i32, ptr %28, align 4, !tbaa !65
  %30 = load i32, ptr %7, align 4, !tbaa !29
  %31 = mul nsw i32 %29, %30
  %32 = load i32, ptr %8, align 4, !tbaa !29
  %33 = sdiv i32 %31, %32
  store i32 %33, ptr %13, align 4, !tbaa !29
  call void @llvm.lifetime.start.p0(i64 4, ptr %14) #8
  %34 = load ptr, ptr %12, align 8, !tbaa !37
  %35 = getelementptr inbounds nuw %struct.AVFrame, ptr %34, i32 0, i32 37
  %36 = getelementptr inbounds nuw %struct.AVChannelLayout, ptr %35, i32 0, i32 1
  %37 = load i32, ptr %36, align 4, !tbaa !65
  %38 = load i32, ptr %7, align 4, !tbaa !29
  %39 = add nsw i32 %38, 1
  %40 = mul nsw i32 %37, %39
  %41 = load i32, ptr %8, align 4, !tbaa !29
  %42 = sdiv i32 %40, %41
  store i32 %42, ptr %14, align 4, !tbaa !29
  call void @llvm.lifetime.start.p0(i64 4, ptr %15) #8
  %43 = load i32, ptr %13, align 4, !tbaa !29
  store i32 %43, ptr %15, align 4, !tbaa !29
  br label %44

44:                                               ; preds = %57, %4
  %45 = load i32, ptr %15, align 4, !tbaa !29
  %46 = load i32, ptr %14, align 4, !tbaa !29
  %47 = icmp slt i32 %45, %46
  br i1 %47, label %49, label %48

48:                                               ; preds = %44
  call void @llvm.lifetime.end.p0(i64 4, ptr %15) #8
  br label %60

49:                                               ; preds = %44
  %50 = load ptr, ptr %9, align 8, !tbaa !22
  %51 = getelementptr inbounds nuw %struct.ADecorrelateContext, ptr %50, i32 0, i32 6
  %52 = load ptr, ptr %51, align 8, !tbaa !61
  %53 = load ptr, ptr %5, align 8, !tbaa !4
  %54 = load i32, ptr %15, align 4, !tbaa !29
  %55 = load ptr, ptr %12, align 8, !tbaa !37
  %56 = load ptr, ptr %11, align 8, !tbaa !37
  call void %52(ptr noundef %53, i32 noundef %54, ptr noundef %55, ptr noundef %56)
  br label %57

57:                                               ; preds = %49
  %58 = load i32, ptr %15, align 4, !tbaa !29
  %59 = add nsw i32 %58, 1
  store i32 %59, ptr %15, align 4, !tbaa !29
  br label %44, !llvm.loop !66

60:                                               ; preds = %48
  call void @llvm.lifetime.end.p0(i64 4, ptr %14) #8
  call void @llvm.lifetime.end.p0(i64 4, ptr %13) #8
  call void @llvm.lifetime.end.p0(i64 8, ptr %12) #8
  call void @llvm.lifetime.end.p0(i64 8, ptr %11) #8
  call void @llvm.lifetime.end.p0(i64 8, ptr %10) #8
  call void @llvm.lifetime.end.p0(i64 8, ptr %9) #8
  ret i32 0
}