; Function Attrs: nounwind uwtable
define internal noundef i32 @filter_channels(ptr noundef %0, ptr noundef readonly captures(none) %1, i32 noundef %2, i32 noundef %3) #1 {
  %5 = getelementptr inbounds nuw i8, ptr %1, i64 8
  %6 = load ptr, ptr %5, align 8, !tbaa !51
  %7 = load ptr, ptr %1, align 8, !tbaa !49
  %8 = getelementptr inbounds nuw i8, ptr %7, i64 388
  %9 = load i32, ptr %8, align 4, !tbaa !71
  %10 = mul nsw i32 %9, %2
  %11 = sdiv i32 %10, %3
  %12 = add nsw i32 %2, 1
  %13 = mul nsw i32 %9, %12
  %14 = sdiv i32 %13, %3
  %15 = icmp slt i32 %11, %14
  br i1 %15, label %.lr.ph, label %._crit_edge

.lr.ph:                                           ; preds = %4
  %16 = getelementptr inbounds nuw i8, ptr %0, i64 72
  %17 = load ptr, ptr %16, align 8, !tbaa !4
  %18 = getelementptr inbounds nuw i8, ptr %17, i64 304
  br label %19

._crit_edge:                                      ; preds = %19, %4
  ret i32 0

19:                                               ; preds = %.lr.ph, %19
  %.018 = phi i32 [ %11, %.lr.ph ], [ %21, %19 ]
  %20 = load ptr, ptr %18, align 8, !tbaa !70
  tail call void %20(ptr noundef nonnull %0, i32 noundef %.018, ptr noundef nonnull %7, ptr noundef %6) #8
  %21 = add i32 %.018, 1
  %exitcond.not = icmp eq i32 %21, %14
  br i1 %exitcond.not, label %._crit_edge, label %19, !llvm.loop !72
}